target datalayout = "e-m:e-p270:32:32-p271:32:32-p272:64:64-i64:64-i128:128-f80:128-n8:16:32:64-S128"
target triple = "x86_64-unknown-linux-gnu"

%"class.std::__cxx11::basic_string" = type { %"struct.std::__cxx11::basic_string<char>::_Alloc_hider", i64, %union.anon }
%"struct.std::__cxx11::basic_string<char>::_Alloc_hider" = type { ptr }
%union.anon = type { i64, [8 x i8] }
%"class.rocksdb::(anonymous namespace)::SkipListRep::Iterator" = type { %"class.rocksdb::MemTableRep::Iterator", %"class.rocksdb::InlineSkipList<const rocksdb::MemTableRep::KeyComparator &>::Iterator", %"class.std::__cxx11::basic_string" }
%"class.rocksdb::MemTableRep::Iterator" = type { ptr }
%"class.rocksdb::InlineSkipList<const rocksdb::MemTableRep::KeyComparator &>::Iterator" = type { ptr, ptr }

; Function Attrs: mustprogress uwtable
define linkonce_odr void @_ZN7rocksdb14InlineSkipListIRKNS_11MemTableRep13KeyComparatorEE8Iterator10RandomSeekEv(ptr noundef nonnull align 8 dereferenceable(16) %this) #0 comdat align 2 {
entry:
  %this.addr = alloca ptr, align 8
  store ptr %this, ptr %this.addr, align 8
  %this1 = load ptr, ptr %this.addr, align 8
  %list_ = getelementptr inbounds %"class.rocksdb::InlineSkipList<const rocksdb::MemTableRep::KeyComparator &>::Iterator", ptr %this1, i32 0, i32 0
  %0 = load ptr, ptr %list_, align 8
  %call = call noundef ptr @_ZNK7rocksdb14InlineSkipListIRKNS_11MemTableRep13KeyComparatorEE15FindRandomEntryEv(ptr noundef nonnull align 8 dereferenceable(48) %0)
  %node_ = getelementptr inbounds %"class.rocksdb::InlineSkipList<const rocksdb::MemTableRep::KeyComparator &>::Iterator", ptr %this1, i32 0, i32 1
  store ptr %call, ptr %node_, align 8
  ret void
}

; Function Attrs: mustprogress uwtable
define internal void @_ZN7rocksdb12_GLOBAL__N_111SkipListRep8Iterator10RandomSeekEv(ptr noundef nonnull align 8 dereferenceable(56) %this) unnamed_addr #0 align 2 {
entry:
  %this.addr = alloca ptr, align 8
  store ptr %this, ptr %this.addr, align 8
  %this1 = load ptr, ptr %this.addr, align 8
  %iter_ = getelementptr inbounds %"class.rocksdb::(anonymous namespace)::SkipListRep::Iterator", ptr %this1, i32 0, i32 1
  call void @_ZN7rocksdb14InlineSkipListIRKNS_11MemTableRep13KeyComparatorEE8Iterator10RandomSeekEv(ptr noundef nonnull align 8 dereferenceable(16) %iter_)
  ret void
}