; Function Attrs: mustprogress uwtable
define internal void @_ZN7rocksdb12_GLOBAL__N_111SkipListRep8Iterator10RandomSeekEv(ptr nocapture noundef nonnull align 8 dereferenceable(56) %this) unnamed_addr #3 align 2 {
entry:
  %iter_ = getelementptr inbounds i8, ptr %this, i64 8
  %0 = load ptr, ptr %iter_, align 8
  %call.i = tail call noundef ptr @_ZNK7rocksdb14InlineSkipListIRKNS_11MemTableRep13KeyComparatorEE15FindRandomEntryEv(ptr noundef nonnull align 8 dereferenceable(48) %0)
  %node_.i = getelementptr inbounds i8, ptr %this, i64 16
  store ptr %call.i, ptr %node_.i, align 8
  ret void
}